; Function Attrs: mustprogress uwtable
define void @_ZN8QuantLib30UnitOfMeasureConversionManagerC2Ev(ptr noundef nonnull align 8 dereferenceable(24) %this) unnamed_addr #0 align 2 personality ptr @__gxx_personality_v0 {
entry:
  %_M_prev.i.i.i.i.i = getelementptr inbounds nuw i8, ptr %this, i64 8
  store ptr %this, ptr %_M_prev.i.i.i.i.i, align 8, !tbaa !3
  store ptr %this, ptr %this, align 8, !tbaa !8
  %_M_size.i.i.i.i.i = getelementptr inbounds nuw i8, ptr %this, i64 16
  store i64 0, ptr %_M_size.i.i.i.i.i, align 8, !tbaa !9
  invoke void @_ZN8QuantLib30UnitOfMeasureConversionManager25addKnownConversionFactorsEv(ptr noundef nonnull align 8 dereferenceable(24) %this)
          to label %invoke.cont unwind label %lpad

invoke.cont:                                      ; preds = %entry
  ret void

lpad:                                             ; preds = %entry
  %0 = landingpad { ptr, i32 }
          cleanup
  tail call void @_ZNSt7__cxx1110_List_baseIN8QuantLib23UnitOfMeasureConversionESaIS2_EED2Ev(ptr noundef nonnull align 8 dereferenceable(24) %this) #20
  resume { ptr, i32 } %0
}